target datalayout = "e-m:e-p270:32:32-p271:32:32-p272:64:64-i64:64-i128:128-f80:128-n8:16:32:64-S128"
target triple = "x86_64-pc-linux-gnu"

@.str.3 = private unnamed_addr constant [3 x i8] c" >\00", align 1

; Function Attrs: mustprogress nounwind uwtable
define internal noundef i64 @_ZN32pxrInternal_v0_24__pxrReserved__12_GLOBAL__N_115_GetStartOfNameERKNSt7__cxx1112basic_stringIcSt11char_traitsIcESaIcEEEm(ptr noundef nonnull align 8 dereferenceable(32) %0, i64 noundef %1) #3 {
  %3 = alloca ptr, align 8
  %4 = alloca i64, align 8
  %5 = alloca i32, align 4
  store ptr %0, ptr %3, align 8
  store i64 %1, ptr %4, align 8
  %6 = load ptr, ptr %3, align 8
  %7 = load i64, ptr %4, align 8
  %8 = call noundef i64 @_ZNKSt7__cxx1112basic_stringIcSt11char_traitsIcESaIcEE12find_last_ofEPKcm(ptr noundef nonnull align 8 dereferenceable(32) %6, ptr noundef @.str.3, i64 noundef %7) #10
  store i64 %8, ptr %4, align 8
  br label %9

9:                                                ; preds = %53, %2
  %10 = load i64, ptr %4, align 8
  %11 = icmp ne i64 %10, -1
  br i1 %11, label %12, label %19

12:                                               ; preds = %9
  %13 = load ptr, ptr %3, align 8
  %14 = load i64, ptr %4, align 8
  %15 = call noundef nonnull align 1 dereferenceable(1) ptr @_ZNKSt7__cxx1112basic_stringIcSt11char_traitsIcESaIcEEixEm(ptr noundef nonnull align 8 dereferenceable(32) %13, i64 noundef %14) #10
  %16 = load i8, ptr %15, align 1
  %17 = sext i8 %16 to i32
  %18 = icmp ne i32 %17, 32
  br label %19

19:                                               ; preds = %12, %9
  %20 = phi i1 [ false, %9 ], [ %18, %12 ]
  br i1 %20, label %21, label %57

21:                                               ; preds = %19
  store i32 1, ptr %5, align 4
  br label %22

22:                                               ; preds = %52, %21
  %23 = load i32, ptr %5, align 4
  %24 = icmp ne i32 %23, 0
  br i1 %24, label %25, label %29

25:                                               ; preds = %22
  %26 = load i64, ptr %4, align 8
  %27 = add i64 %26, -1
  store i64 %27, ptr %4, align 8
  %28 = icmp ne i64 %27, 0
  br label %29

29:                                               ; preds = %25, %22
  %30 = phi i1 [ false, %22 ], [ %28, %25 ]
  br i1 %30, label %31, label %53

31:                                               ; preds = %29
  %32 = load ptr, ptr %3, align 8
  %33 = load i64, ptr %4, align 8
  %34 = call noundef nonnull align 1 dereferenceable(1) ptr @_ZNKSt7__cxx1112basic_stringIcSt11char_traitsIcESaIcEEixEm(ptr noundef nonnull align 8 dereferenceable(32) %32, i64 noundef %33) #10
  %35 = load i8, ptr %34, align 1
  %36 = sext i8 %35 to i32
  %37 = icmp eq i32 %36, 62
  br i1 %37, label %38, label %41

38:                                               ; preds = %31
  %39 = load i32, ptr %5, align 4
  %40 = add nsw i32 %39, 1
  store i32 %40, ptr %5, align 4
  br label %52

41:                                               ; preds = %31
  %42 = load ptr, ptr %3, align 8
  %43 = load i64, ptr %4, align 8
  %44 = call noundef nonnull align 1 dereferenceable(1) ptr @_ZNKSt7__cxx1112basic_stringIcSt11char_traitsIcESaIcEEixEm(ptr noundef nonnull align 8 dereferenceable(32) %42, i64 noundef %43) #10
  %45 = load i8, ptr %44, align 1
  %46 = sext i8 %45 to i32
  %47 = icmp eq i32 %46, 60
  br i1 %47, label %48, label %51

48:                                               ; preds = %41
  %49 = load i32, ptr %5, align 4
  %50 = add nsw i32 %49, -1
  store i32 %50, ptr %5, align 4
  br label %51

51:                                               ; preds = %48, %41
  br label %52

52:                                               ; preds = %51, %38
  br label %22, !llvm.loop !7

53:                                               ; preds = %29
  %54 = load ptr, ptr %3, align 8
  %55 = load i64, ptr %4, align 8
  %56 = call noundef i64 @_ZNKSt7__cxx1112basic_stringIcSt11char_traitsIcESaIcEE12find_last_ofEPKcm(ptr noundef nonnull align 8 dereferenceable(32) %54, ptr noundef @.str.3, i64 noundef %55) #10
  store i64 %56, ptr %4, align 8
  br label %9, !llvm.loop !8

57:                                               ; preds = %19
  %58 = load i64, ptr %4, align 8
  %59 = icmp eq i64 %58, -1
  br i1 %59, label %60, label %61

60:                                               ; preds = %57
  br label %64

61:                                               ; preds = %57
  %62 = load i64, ptr %4, align 8
  %63 = add i64 %62, 1
  br label %64

64:                                               ; preds = %61, %60
  %65 = phi i64 [ 0, %60 ], [ %63, %61 ]
  ret i64 %65
}