; Function Attrs: mustprogress nounwind uwtable
define internal fastcc noundef i64 @_ZN32pxrInternal_v0_24__pxrReserved__12_GLOBAL__N_115_GetStartOfNameERKNSt7__cxx1112basic_stringIcSt11char_traitsIcESaIcEEEm(ptr noundef nonnull align 8 dereferenceable(32) %0, i64 noundef %1) unnamed_addr #3 {
  %3 = tail call noundef i64 @_ZNKSt7__cxx1112basic_stringIcSt11char_traitsIcESaIcEE12find_last_ofEPKcm(ptr noundef nonnull align 8 dereferenceable(32) %0, ptr noundef nonnull @.str.3, i64 noundef %1) #11
  %.not27 = icmp eq i64 %3, -1
  br i1 %.not27, label %.critedge, label %.lr.ph

.lr.ph:                                           ; preds = %2, %.critedge2
  %.01828 = phi i64 [ %17, %.critedge2 ], [ %3, %2 ]
  %4 = tail call noundef nonnull align 1 dereferenceable(1) ptr @_ZNKSt7__cxx1112basic_stringIcSt11char_traitsIcESaIcEEixEm(ptr noundef nonnull align 8 dereferenceable(32) %0, i64 noundef %.01828) #11
  %5 = load i8, ptr %4, align 1
  %.not22 = icmp eq i8 %5, 32
  br i1 %.not22, label %.critedge.loopexit, label %.preheader

.preheader:                                       ; preds = %.lr.ph, %16
  %.026 = phi i32 [ %spec.select, %16 ], [ 1, %.lr.ph ]
  %.11925 = phi i64 [ %6, %16 ], [ %.01828, %.lr.ph ]
  %6 = add i64 %.11925, -1
  %.not24 = icmp eq i64 %6, 0
  br i1 %.not24, label %.critedge2, label %7

7:                                                ; preds = %.preheader
  %8 = tail call noundef nonnull align 1 dereferenceable(1) ptr @_ZNKSt7__cxx1112basic_stringIcSt11char_traitsIcESaIcEEixEm(ptr noundef nonnull align 8 dereferenceable(32) %0, i64 noundef %6) #11
  %9 = load i8, ptr %8, align 1
  %10 = icmp eq i8 %9, 62
  br i1 %10, label %16, label %11

11:                                               ; preds = %7
  %12 = tail call noundef nonnull align 1 dereferenceable(1) ptr @_ZNKSt7__cxx1112basic_stringIcSt11char_traitsIcESaIcEEixEm(ptr noundef nonnull align 8 dereferenceable(32) %0, i64 noundef %6) #11
  %13 = load i8, ptr %12, align 1
  %14 = icmp eq i8 %13, 60
  %15 = sext i1 %14 to i32
  br label %16

16:                                               ; preds = %7, %11
  %.sink = phi i32 [ %15, %11 ], [ 1, %7 ]
  %spec.select = add nsw i32 %.026, %.sink
  %.not23 = icmp eq i32 %spec.select, 0
  br i1 %.not23, label %.critedge2, label %.preheader, !llvm.loop !26

.critedge2:                                       ; preds = %16, %.preheader
  %17 = tail call noundef i64 @_ZNKSt7__cxx1112basic_stringIcSt11char_traitsIcESaIcEE12find_last_ofEPKcm(ptr noundef nonnull align 8 dereferenceable(32) %0, ptr noundef nonnull @.str.3, i64 noundef %6) #11
  %.not = icmp eq i64 %17, -1
  br i1 %.not, label %.critedge.loopexit, label %.lr.ph, !llvm.loop !27

.critedge.loopexit:                               ; preds = %.critedge2, %.lr.ph
  %.018.lcssa.ph = phi i64 [ %.01828, %.lr.ph ], [ -1, %.critedge2 ]
  %18 = add i64 %.018.lcssa.ph, 1
  br label %.critedge

.critedge:                                        ; preds = %.critedge.loopexit, %2
  %.018.lcssa = phi i64 [ 0, %2 ], [ %18, %.critedge.loopexit ]
  ret i64 %.018.lcssa
}